target datalayout = "e-m:e-p270:32:32-p271:32:32-p272:64:64-i64:64-i128:128-f80:128-n8:16:32:64-S128"
target triple = "x86_64-unknown-linux-gnu"

%"class.std::set.0" = type { %"class.std::_Rb_tree.1" }
%"class.std::_Rb_tree.1" = type { %"struct.std::_Rb_tree<QuantLib::Observer *, QuantLib::Observer *, std::_Identity<QuantLib::Observer *>, std::less<QuantLib::Observer *>>::_Rb_tree_impl" }
%"struct.std::_Rb_tree<QuantLib::Observer *, QuantLib::Observer *, std::_Identity<QuantLib::Observer *>, std::less<QuantLib::Observer *>>::_Rb_tree_impl" = type { [8 x i8], %"struct.std::_Rb_tree_header" }
%"struct.std::_Rb_tree_header" = type { %"struct.std::_Rb_tree_node_base", i64 }
%"struct.std::_Rb_tree_node_base" = type { i32, ptr, ptr, ptr }
%"class.std::set" = type { %"class.std::_Rb_tree" }
%"class.std::_Rb_tree" = type { %"struct.std::_Rb_tree<boost::shared_ptr<QuantLib::Observable>, boost::shared_ptr<QuantLib::Observable>, std::_Identity<boost::shared_ptr<QuantLib::Observable>>, std::less<boost::shared_ptr<QuantLib::Observable>>>::_Rb_tree_impl" }
%"struct.std::_Rb_tree<boost::shared_ptr<QuantLib::Observable>, boost::shared_ptr<QuantLib::Observable>, std::_Identity<boost::shared_ptr<QuantLib::Observable>>, std::less<boost::shared_ptr<QuantLib::Observable>>>::_Rb_tree_impl" = type { [8 x i8], %"struct.std::_Rb_tree_header" }
%"class.boost::detail::shared_count" = type { ptr }
%"class.QuantLib::Observable" = type { ptr, %"class.std::set.0" }
%"class.QuantLib::Observer" = type { ptr, %"class.std::set" }
%"class.QuantLib::CompositeInstrument" = type { %"class.QuantLib::Instrument.base", %"class.std::__cxx11::list", %"class.QuantLib::Observable", %"class.QuantLib::Observer" }
%"class.QuantLib::Instrument.base" = type { %"class.QuantLib::LazyObject.base", double, double, %"class.QuantLib::Date", %"class.std::map", %"class.boost::shared_ptr.16" }
%"class.QuantLib::LazyObject.base" = type <{ ptr, i8, i8, i8, i8 }>
%"class.QuantLib::Date" = type { i64 }
%"class.std::map" = type { %"class.std::_Rb_tree.11" }
%"class.std::_Rb_tree.11" = type { %"struct.std::_Rb_tree<std::__cxx11::basic_string<char>, std::pair<const std::__cxx11::basic_string<char>, boost::any>, std::_Select1st<std::pair<const std::__cxx11::basic_string<char>, boost::any>>, std::less<std::__cxx11::basic_string<char>>>::_Rb_tree_impl" }
%"struct.std::_Rb_tree<std::__cxx11::basic_string<char>, std::pair<const std::__cxx11::basic_string<char>, boost::any>, std::_Select1st<std::pair<const std::__cxx11::basic_string<char>, boost::any>>, std::less<std::__cxx11::basic_string<char>>>::_Rb_tree_impl" = type { [8 x i8], %"struct.std::_Rb_tree_header" }
%"class.boost::shared_ptr.16" = type { ptr, %"class.boost::detail::shared_count" }
%"class.std::__cxx11::list" = type { %"class.std::__cxx11::_List_base" }
%"class.std::__cxx11::_List_base" = type { %"struct.std::__cxx11::_List_base<std::pair<boost::shared_ptr<QuantLib::Instrument>, double>, std::allocator<std::pair<boost::shared_ptr<QuantLib::Instrument>, double>>>::_List_impl" }
%"struct.std::__cxx11::_List_base<std::pair<boost::shared_ptr<QuantLib::Instrument>, double>, std::allocator<std::pair<boost::shared_ptr<QuantLib::Instrument>, double>>>::_List_impl" = type { %"struct.std::__detail::_List_node_header" }
%"struct.std::__detail::_List_node_header" = type { %"struct.std::__detail::_List_node_base", i64 }
%"struct.std::__detail::_List_node_base" = type { ptr, ptr }
%"class.boost::shared_ptr.6" = type { ptr, %"class.boost::detail::shared_count" }
%"struct.std::_List_const_iterator" = type { ptr }
%"struct.std::pair" = type { %"class.boost::shared_ptr.6", double }
%"class.QuantLib::Instrument" = type { %"class.QuantLib::LazyObject.base", double, double, %"class.QuantLib::Date", %"class.std::map", %"class.boost::shared_ptr.16", %"class.QuantLib::Observable", %"class.QuantLib::Observer" }
%"struct.std::_List_node" = type { %"struct.std::__detail::_List_node_base", %"struct.__gnu_cxx::__aligned_membuf.51" }
%"struct.__gnu_cxx::__aligned_membuf.51" = type { [24 x i8] }

@.str.5 = private unnamed_addr constant [8 x i8] c"px != 0\00", align 1
@.str.6 = private unnamed_addr constant [102 x i8] c"generated/home/dtcxzyw/WorkSpace/SDK/vcpkg/installed/x64-linux/include/boost/smart_ptr/shared_ptr.hpp\00", align 1
@__PRETTY_FUNCTION__._ZNK5boost10shared_ptrIN8QuantLib10InstrumentEEptEv = private unnamed_addr constant [137 x i8] c"typename boost::detail::sp_member_access<T>::type boost::shared_ptr<QuantLib::Instrument>::operator->() const [T = QuantLib::Instrument]\00", align 1

; Function Attrs: mustprogress nounwind uwtable
define linkonce_odr noundef ptr @_ZNK9__gnu_cxx16__aligned_membufISt4pairIN5boost10shared_ptrIN8QuantLib10InstrumentEEEdEE7_M_addrEv(ptr noundef nonnull align 8 dereferenceable(24) %this) #1 comdat align 2 {
entry:
  %this.addr = alloca ptr, align 8
  store ptr %this, ptr %this.addr, align 8, !tbaa !3
  %this1 = load ptr, ptr %this.addr, align 8
  %_M_storage = getelementptr inbounds nuw %"struct.__gnu_cxx::__aligned_membuf.51", ptr %this1, i32 0, i32 0
  ret ptr %_M_storage
}

; Function Attrs: mustprogress nounwind uwtable
define linkonce_odr noundef ptr @_ZNK9__gnu_cxx16__aligned_membufISt4pairIN5boost10shared_ptrIN8QuantLib10InstrumentEEEdEE6_M_ptrEv(ptr noundef nonnull align 8 dereferenceable(24) %this) #1 comdat align 2 {
entry:
  %this.addr = alloca ptr, align 8
  store ptr %this, ptr %this.addr, align 8, !tbaa !3
  %this1 = load ptr, ptr %this.addr, align 8
  %call = call noundef ptr @_ZNK9__gnu_cxx16__aligned_membufISt4pairIN5boost10shared_ptrIN8QuantLib10InstrumentEEEdEE7_M_addrEv(ptr noundef nonnull align 8 dereferenceable(24) %this1) #13
  ret ptr %call
}

; Function Attrs: noinline noreturn nounwind uwtable
define linkonce_odr hidden void @__clang_call_terminate(ptr noundef %0) #3 comdat {
  %2 = call ptr @__cxa_begin_catch(ptr %0) #13
  call void @_ZSt9terminatev() #23
  unreachable
}

; Function Attrs: mustprogress nounwind uwtable
define linkonce_odr noundef ptr @_ZNKSt10_List_nodeISt4pairIN5boost10shared_ptrIN8QuantLib10InstrumentEEEdEE9_M_valptrEv(ptr noundef nonnull align 8 dereferenceable(40) %this) #1 comdat align 2 {
entry:
  %this.addr = alloca ptr, align 8
  store ptr %this, ptr %this.addr, align 8, !tbaa !3
  %this1 = load ptr, ptr %this.addr, align 8
  %_M_storage = getelementptr inbounds nuw %"struct.std::_List_node", ptr %this1, i32 0, i32 1
  %call = call noundef ptr @_ZNK9__gnu_cxx16__aligned_membufISt4pairIN5boost10shared_ptrIN8QuantLib10InstrumentEEEdEE6_M_ptrEv(ptr noundef nonnull align 8 dereferenceable(24) %_M_storage) #13
  ret ptr %call
}

; Function Attrs: mustprogress nounwind uwtable
define linkonce_odr void @_ZNSt20_List_const_iteratorISt4pairIN5boost10shared_ptrIN8QuantLib10InstrumentEEEdEEC2EPKNSt8__detail15_List_node_baseE(ptr noundef nonnull align 8 dereferenceable(8) %this, ptr noundef %__x) unnamed_addr #1 comdat align 2 {
entry:
  %this.addr = alloca ptr, align 8
  %__x.addr = alloca ptr, align 8
  store ptr %this, ptr %this.addr, align 8, !tbaa !3
  store ptr %__x, ptr %__x.addr, align 8, !tbaa !3
  %this1 = load ptr, ptr %this.addr, align 8
  %_M_node = getelementptr inbounds nuw %"struct.std::_List_const_iterator", ptr %this1, i32 0, i32 0
  %0 = load ptr, ptr %__x.addr, align 8, !tbaa !3
  store ptr %0, ptr %_M_node, align 8, !tbaa !31
  ret void
}

; Function Attrs: mustprogress nounwind uwtable
define linkonce_odr noundef nonnull align 8 dereferenceable(8) ptr @_ZNSt20_List_const_iteratorISt4pairIN5boost10shared_ptrIN8QuantLib10InstrumentEEEdEEppEv(ptr noundef nonnull align 8 dereferenceable(8) %this) #1 comdat align 2 {
entry:
  %this.addr = alloca ptr, align 8
  store ptr %this, ptr %this.addr, align 8, !tbaa !3
  %this1 = load ptr, ptr %this.addr, align 8
  %_M_node = getelementptr inbounds nuw %"struct.std::_List_const_iterator", ptr %this1, i32 0, i32 0
  %0 = load ptr, ptr %_M_node, align 8, !tbaa !31
  %_M_next = getelementptr inbounds nuw %"struct.std::__detail::_List_node_base", ptr %0, i32 0, i32 0
  %1 = load ptr, ptr %_M_next, align 8, !tbaa !29
  %_M_node2 = getelementptr inbounds nuw %"struct.std::_List_const_iterator", ptr %this1, i32 0, i32 0
  store ptr %1, ptr %_M_node2, align 8, !tbaa !31
  ret ptr %this1
}

; Function Attrs: mustprogress uwtable
define linkonce_odr noundef ptr @_ZNK5boost10shared_ptrIN8QuantLib10InstrumentEEptEv(ptr noundef nonnull align 8 dereferenceable(16) %this) #2 comdat align 2 {
entry:
  %this.addr = alloca ptr, align 8
  store ptr %this, ptr %this.addr, align 8, !tbaa !3
  %this1 = load ptr, ptr %this.addr, align 8
  %px = getelementptr inbounds nuw %"class.boost::shared_ptr.6", ptr %this1, i32 0, i32 0
  %0 = load ptr, ptr %px, align 8, !tbaa !26
  %cmp = icmp ne ptr %0, null
  %lnot = xor i1 %cmp, true
  %lnot2 = xor i1 %lnot, true
  %conv = zext i1 %lnot2 to i64
  %expval = call i64 @llvm.expect.i64(i64 %conv, i64 1)
  %tobool = icmp ne i64 %expval, 0
  br i1 %tobool, label %cond.true, label %cond.false

cond.true:                                        ; preds = %entry
  br label %cond.end

cond.false:                                       ; preds = %entry
  call void @_ZN5boost16assertion_failedEPKcS1_S1_l(ptr noundef @.str.5, ptr noundef @__PRETTY_FUNCTION__._ZNK5boost10shared_ptrIN8QuantLib10InstrumentEEptEv, ptr noundef @.str.6, i64 noundef 784)
  br label %cond.end

cond.end:                                         ; preds = %cond.false, %cond.true
  %px3 = getelementptr inbounds nuw %"class.boost::shared_ptr.6", ptr %this1, i32 0, i32 0
  %1 = load ptr, ptr %px3, align 8, !tbaa !26
  ret ptr %1
}

; Function Attrs: mustprogress nounwind uwtable
define linkonce_odr noundef nonnull align 8 dereferenceable(24) ptr @_ZNKSt20_List_const_iteratorISt4pairIN5boost10shared_ptrIN8QuantLib10InstrumentEEEdEEdeEv(ptr noundef nonnull align 8 dereferenceable(8) %this) #1 comdat align 2 personality ptr @__gxx_personality_v0 {
entry:
  %this.addr = alloca ptr, align 8
  store ptr %this, ptr %this.addr, align 8, !tbaa !3
  %this1 = load ptr, ptr %this.addr, align 8
  %_M_node = getelementptr inbounds nuw %"struct.std::_List_const_iterator", ptr %this1, i32 0, i32 0
  %0 = load ptr, ptr %_M_node, align 8, !tbaa !31
  %call = invoke noundef ptr @_ZNKSt10_List_nodeISt4pairIN5boost10shared_ptrIN8QuantLib10InstrumentEEEdEE9_M_valptrEv(ptr noundef nonnull align 8 dereferenceable(40) %0)
          to label %invoke.cont unwind label %terminate.lpad

invoke.cont:                                      ; preds = %entry
  ret ptr %call

terminate.lpad:                                   ; preds = %entry
  %1 = landingpad { ptr, i32 }
          catch ptr null
  %2 = extractvalue { ptr, i32 } %1, 0
  call void @__clang_call_terminate(ptr %2) #23
  unreachable
}

; Function Attrs: mustprogress nounwind uwtable
define linkonce_odr noundef zeroext i1 @_ZStneRKSt20_List_const_iteratorISt4pairIN5boost10shared_ptrIN8QuantLib10InstrumentEEEdEES9_(ptr noundef nonnull align 8 dereferenceable(8) %__x, ptr noundef nonnull align 8 dereferenceable(8) %__y) #1 comdat {
entry:
  %__x.addr = alloca ptr, align 8
  %__y.addr = alloca ptr, align 8
  store ptr %__x, ptr %__x.addr, align 8, !tbaa !3
  store ptr %__y, ptr %__y.addr, align 8, !tbaa !3
  %0 = load ptr, ptr %__x.addr, align 8, !tbaa !3
  %_M_node = getelementptr inbounds nuw %"struct.std::_List_const_iterator", ptr %0, i32 0, i32 0
  %1 = load ptr, ptr %_M_node, align 8, !tbaa !31
  %2 = load ptr, ptr %__y.addr, align 8, !tbaa !3
  %_M_node1 = getelementptr inbounds nuw %"struct.std::_List_const_iterator", ptr %2, i32 0, i32 0
  %3 = load ptr, ptr %_M_node1, align 8, !tbaa !31
  %cmp = icmp ne ptr %1, %3
  ret i1 %cmp
}

; Function Attrs: mustprogress nounwind uwtable
define linkonce_odr ptr @_ZNKSt7__cxx114listISt4pairIN5boost10shared_ptrIN8QuantLib10InstrumentEEEdESaIS7_EE3endEv(ptr noundef nonnull align 8 dereferenceable(24) %this) #1 comdat align 2 {
entry:
  %retval = alloca %"struct.std::_List_const_iterator", align 8
  %this.addr = alloca ptr, align 8
  store ptr %this, ptr %this.addr, align 8, !tbaa !3
  %this1 = load ptr, ptr %this.addr, align 8
  %_M_impl = getelementptr inbounds nuw %"class.std::__cxx11::_List_base", ptr %this1, i32 0, i32 0
  %_M_node = getelementptr inbounds nuw %"struct.std::__cxx11::_List_base<std::pair<boost::shared_ptr<QuantLib::Instrument>, double>, std::allocator<std::pair<boost::shared_ptr<QuantLib::Instrument>, double>>>::_List_impl", ptr %_M_impl, i32 0, i32 0
  call void @_ZNSt20_List_const_iteratorISt4pairIN5boost10shared_ptrIN8QuantLib10InstrumentEEEdEEC2EPKNSt8__detail15_List_node_baseE(ptr noundef nonnull align 8 dereferenceable(8) %retval, ptr noundef %_M_node) #13
  %coerce.dive = getelementptr inbounds nuw %"struct.std::_List_const_iterator", ptr %retval, i32 0, i32 0
  %0 = load ptr, ptr %coerce.dive, align 8
  ret ptr %0
}

; Function Attrs: mustprogress nounwind uwtable
define linkonce_odr ptr @_ZNKSt7__cxx114listISt4pairIN5boost10shared_ptrIN8QuantLib10InstrumentEEEdESaIS7_EE5beginEv(ptr noundef nonnull align 8 dereferenceable(24) %this) #1 comdat align 2 {
entry:
  %retval = alloca %"struct.std::_List_const_iterator", align 8
  %this.addr = alloca ptr, align 8
  store ptr %this, ptr %this.addr, align 8, !tbaa !3
  %this1 = load ptr, ptr %this.addr, align 8
  %_M_impl = getelementptr inbounds nuw %"class.std::__cxx11::_List_base", ptr %this1, i32 0, i32 0
  %_M_node = getelementptr inbounds nuw %"struct.std::__cxx11::_List_base<std::pair<boost::shared_ptr<QuantLib::Instrument>, double>, std::allocator<std::pair<boost::shared_ptr<QuantLib::Instrument>, double>>>::_List_impl", ptr %_M_impl, i32 0, i32 0
  %_M_next = getelementptr inbounds nuw %"struct.std::__detail::_List_node_base", ptr %_M_node, i32 0, i32 0
  %0 = load ptr, ptr %_M_next, align 8, !tbaa !29
  call void @_ZNSt20_List_const_iteratorISt4pairIN5boost10shared_ptrIN8QuantLib10InstrumentEEEdEEC2EPKNSt8__detail15_List_node_baseE(ptr noundef nonnull align 8 dereferenceable(8) %retval, ptr noundef %0) #13
  %coerce.dive = getelementptr inbounds nuw %"struct.std::_List_const_iterator", ptr %retval, i32 0, i32 0
  %1 = load ptr, ptr %coerce.dive, align 8
  ret ptr %1
}

; Function Attrs: mustprogress uwtable
define void @_ZNK8QuantLib19CompositeInstrument19performCalculationsEv(ptr noundef nonnull align 8 dereferenceable(128) %this) unnamed_addr #2 align 2 {
entry:
  %this.addr = alloca ptr, align 8
  %__range1 = alloca ptr, align 8
  %__begin1 = alloca %"struct.std::_List_const_iterator", align 8
  %__end1 = alloca %"struct.std::_List_const_iterator", align 8
  %component = alloca ptr, align 8
  store ptr %this, ptr %this.addr, align 8, !tbaa !3
  %this1 = load ptr, ptr %this.addr, align 8
  %NPV_ = getelementptr inbounds nuw %"class.QuantLib::Instrument", ptr %this1, i32 0, i32 1
  store double 0.000000e+00, ptr %NPV_, align 8, !tbaa !33
  call void @llvm.lifetime.start.p0(i64 8, ptr %__range1) #13
  %components_ = getelementptr inbounds nuw %"class.QuantLib::CompositeInstrument", ptr %this1, i32 0, i32 1
  store ptr %components_, ptr %__range1, align 8, !tbaa !3
  call void @llvm.lifetime.start.p0(i64 8, ptr %__begin1) #13
  %0 = load ptr, ptr %__range1, align 8, !tbaa !3
  %call = call ptr @_ZNKSt7__cxx114listISt4pairIN5boost10shared_ptrIN8QuantLib10InstrumentEEEdESaIS7_EE5beginEv(ptr noundef nonnull align 8 dereferenceable(24) %0) #13
  %coerce.dive = getelementptr inbounds nuw %"struct.std::_List_const_iterator", ptr %__begin1, i32 0, i32 0
  store ptr %call, ptr %coerce.dive, align 8
  call void @llvm.lifetime.start.p0(i64 8, ptr %__end1) #13
  %1 = load ptr, ptr %__range1, align 8, !tbaa !3
  %call2 = call ptr @_ZNKSt7__cxx114listISt4pairIN5boost10shared_ptrIN8QuantLib10InstrumentEEEdESaIS7_EE3endEv(ptr noundef nonnull align 8 dereferenceable(24) %1) #13
  %coerce.dive3 = getelementptr inbounds nuw %"struct.std::_List_const_iterator", ptr %__end1, i32 0, i32 0
  store ptr %call2, ptr %coerce.dive3, align 8
  br label %for.cond

for.cond:                                         ; preds = %for.inc, %entry
  %call4 = call noundef zeroext i1 @_ZStneRKSt20_List_const_iteratorISt4pairIN5boost10shared_ptrIN8QuantLib10InstrumentEEEdEES9_(ptr noundef nonnull align 8 dereferenceable(8) %__begin1, ptr noundef nonnull align 8 dereferenceable(8) %__end1) #13
  br i1 %call4, label %for.body, label %for.cond.cleanup

for.cond.cleanup:                                 ; preds = %for.cond
  call void @llvm.lifetime.end.p0(i64 8, ptr %__end1) #13
  call void @llvm.lifetime.end.p0(i64 8, ptr %__begin1) #13
  call void @llvm.lifetime.end.p0(i64 8, ptr %__range1) #13
  br label %for.end

for.body:                                         ; preds = %for.cond
  call void @llvm.lifetime.start.p0(i64 8, ptr %component) #13
  %call5 = call noundef nonnull align 8 dereferenceable(24) ptr @_ZNKSt20_List_const_iteratorISt4pairIN5boost10shared_ptrIN8QuantLib10InstrumentEEEdEEdeEv(ptr noundef nonnull align 8 dereferenceable(8) %__begin1) #13
  store ptr %call5, ptr %component, align 8, !tbaa !3
  %2 = load ptr, ptr %component, align 8, !tbaa !3
  %second = getelementptr inbounds nuw %"struct.std::pair", ptr %2, i32 0, i32 1
  %3 = load double, ptr %second, align 8, !tbaa !46
  %4 = load ptr, ptr %component, align 8, !tbaa !3
  %first = getelementptr inbounds nuw %"struct.std::pair", ptr %4, i32 0, i32 0
  %call6 = call noundef ptr @_ZNK5boost10shared_ptrIN8QuantLib10InstrumentEEptEv(ptr noundef nonnull align 8 dereferenceable(16) %first)
  %call7 = call noundef double @_ZNK8QuantLib10Instrument3NPVEv(ptr noundef nonnull align 8 dereferenceable(104) %call6)
  %NPV_8 = getelementptr inbounds nuw %"class.QuantLib::Instrument", ptr %this1, i32 0, i32 1
  %5 = load double, ptr %NPV_8, align 8, !tbaa !33
  %6 = call double @llvm.fmuladd.f64(double %3, double %call7, double %5)
  store double %6, ptr %NPV_8, align 8, !tbaa !33
  call void @llvm.lifetime.end.p0(i64 8, ptr %component) #13
  br label %for.inc

for.inc:                                          ; preds = %for.body
  %call9 = call noundef nonnull align 8 dereferenceable(8) ptr @_ZNSt20_List_const_iteratorISt4pairIN5boost10shared_ptrIN8QuantLib10InstrumentEEEdEEppEv(ptr noundef nonnull align 8 dereferenceable(8) %__begin1) #13
  br label %for.cond

for.end:                                          ; preds = %for.cond.cleanup
  ret void
}