; Function Attrs: mustprogress uwtable
define void @_ZNK8QuantLib19CompositeInstrument19performCalculationsEv(ptr noundef nonnull align 8 dereferenceable(128) %this) unnamed_addr #8 align 2 personality ptr @__gxx_personality_v0 {
entry:
  %NPV_ = getelementptr inbounds nuw i8, ptr %this, i64 16
  store double 0.000000e+00, ptr %NPV_, align 8, !tbaa !61
  %components_ = getelementptr inbounds nuw i8, ptr %this, i64 104
  %__begin1.sroa.0.05 = load ptr, ptr %components_, align 8, !tbaa !60
  %cmp.i.not6 = icmp eq ptr %__begin1.sroa.0.05, %components_
  br i1 %cmp.i.not6, label %for.cond.cleanup, label %for.body

for.cond.cleanup:                                 ; preds = %_ZNK5boost10shared_ptrIN8QuantLib10InstrumentEEptEv.exit, %entry
  ret void

for.body:                                         ; preds = %entry, %_ZNK5boost10shared_ptrIN8QuantLib10InstrumentEEptEv.exit
  %__begin1.sroa.0.07 = phi ptr [ %__begin1.sroa.0.0, %_ZNK5boost10shared_ptrIN8QuantLib10InstrumentEEptEv.exit ], [ %__begin1.sroa.0.05, %entry ]
  %_M_storage.i.i = getelementptr inbounds nuw i8, ptr %__begin1.sroa.0.07, i64 16
  %second = getelementptr inbounds nuw i8, ptr %__begin1.sroa.0.07, i64 32
  %0 = load double, ptr %second, align 8, !tbaa !44
  %1 = load ptr, ptr %_M_storage.i.i, align 8, !tbaa !35
  %cmp.not.i = icmp eq ptr %1, null
  br i1 %cmp.not.i, label %cond.false.i, label %_ZNK5boost10shared_ptrIN8QuantLib10InstrumentEEptEv.exit, !prof !57

cond.false.i:                                     ; preds = %for.body
  tail call void @_ZN5boost16assertion_failedEPKcS1_S1_l(ptr noundef nonnull @.str.5, ptr noundef nonnull @__PRETTY_FUNCTION__._ZNK5boost10shared_ptrIN8QuantLib10InstrumentEEptEv, ptr noundef nonnull @.str.6, i64 noundef 784)
  %.pre.i = load ptr, ptr %_M_storage.i.i, align 8, !tbaa !35
  br label %_ZNK5boost10shared_ptrIN8QuantLib10InstrumentEEptEv.exit

_ZNK5boost10shared_ptrIN8QuantLib10InstrumentEEptEv.exit: ; preds = %for.body, %cond.false.i
  %2 = phi ptr [ %1, %for.body ], [ %.pre.i, %cond.false.i ]
  %call7 = tail call noundef double @_ZNK8QuantLib10Instrument3NPVEv(ptr noundef nonnull align 8 dereferenceable(104) %2)
  %3 = load double, ptr %NPV_, align 8, !tbaa !61
  %4 = tail call double @llvm.fmuladd.f64(double %0, double %call7, double %3)
  store double %4, ptr %NPV_, align 8, !tbaa !61
  %__begin1.sroa.0.0 = load ptr, ptr %__begin1.sroa.0.07, align 8, !tbaa !60
  %cmp.i.not = icmp eq ptr %__begin1.sroa.0.0, %components_
  br i1 %cmp.i.not, label %for.cond.cleanup, label %for.body
}